; Function Attrs: nounwind uwtable
define internal fastcc i32 @evp_pkey_ctx_set_uint64(ptr noundef %0, ptr noundef %1, i32 noundef range(i32 4106, 4110) %2, i64 noundef %3) unnamed_addr #0 {
  %5 = alloca i64, align 8
  %6 = alloca i64, align 8
  %7 = alloca [2 x %struct.ossl_param_st], align 16
  %8 = alloca %struct.ossl_param_st, align 8
  store i64 %3, ptr %6, align 8, !tbaa !100
  call void @llvm.lifetime.start.p0(i64 80, ptr nonnull %7) #10
  %9 = icmp eq ptr %0, null
  br i1 %9, label %13, label %10

10:                                               ; preds = %4
  %11 = load i32, ptr %0, align 8, !tbaa !15
  %12 = and i32 %11, 2048
  %.not = icmp eq i32 %12, 0
  br i1 %.not, label %13, label %14

13:                                               ; preds = %10, %4
  tail call void @ERR_new() #10
  tail call void @ERR_set_debug(ptr noundef nonnull @.str, i32 noundef 1200, ptr noundef nonnull @__func__.evp_pkey_ctx_set_uint64) #10
  tail call void (i32, i32, ptr, ...) @ERR_set_error(i32 noundef 6, i32 noundef 147, ptr noundef null) #10
  br label %35

14:                                               ; preds = %10
  %15 = getelementptr inbounds nuw i8, ptr %0, i64 48
  %16 = load ptr, ptr %15, align 8, !tbaa !26
  %17 = icmp eq ptr %16, null
  br i1 %17, label %18, label %32

18:                                               ; preds = %14
  call void @llvm.lifetime.start.p0(i64 8, ptr nonnull %5)
  store i64 %3, ptr %5, align 8, !tbaa !100
  %19 = tail call i32 @ERR_set_mark() #10
  %20 = call fastcc i32 @evp_pkey_ctx_store_cached_data(ptr noundef nonnull %0, i32 noundef -1, i32 noundef 2048, i32 noundef %2, ptr noundef null, ptr noundef nonnull %5, i64 noundef 0)
  %21 = icmp eq i32 %20, -2
  br i1 %21, label %22, label %24

22:                                               ; preds = %18
  %23 = call i32 @ERR_pop_to_mark() #10
  br label %30

24:                                               ; preds = %18
  %25 = call i32 @ERR_clear_last_mark() #10
  %26 = icmp slt i32 %20, 1
  br i1 %26, label %EVP_PKEY_CTX_ctrl.exit, label %27

27:                                               ; preds = %24
  %28 = load i32, ptr %0, align 8, !tbaa !15
  %29 = icmp eq i32 %28, 0
  br i1 %29, label %EVP_PKEY_CTX_ctrl.exit, label %30

30:                                               ; preds = %27, %22
  %31 = call fastcc i32 @evp_pkey_ctx_ctrl_int(ptr noundef nonnull %0, i32 noundef -1, i32 noundef 2048, i32 noundef %2, i32 noundef 0, ptr noundef nonnull %5)
  br label %EVP_PKEY_CTX_ctrl.exit

EVP_PKEY_CTX_ctrl.exit:                           ; preds = %24, %27, %30
  %.0.i = phi i32 [ %31, %30 ], [ 1, %27 ], [ %20, %24 ]
  call void @llvm.lifetime.end.p0(i64 8, ptr nonnull %5)
  br label %35

32:                                               ; preds = %14
  %33 = getelementptr inbounds nuw i8, ptr %7, i64 40
  call void @OSSL_PARAM_construct_uint64(ptr dead_on_unwind nonnull writable sret(%struct.ossl_param_st) align 8 %7, ptr noundef %1, ptr noundef nonnull %6) #10
  call void @llvm.lifetime.start.p0(i64 40, ptr nonnull %8) #10
  call void @OSSL_PARAM_construct_end(ptr dead_on_unwind nonnull writable sret(%struct.ossl_param_st) align 8 %8) #10
  call void @llvm.memcpy.p0.p0.i64(ptr noundef nonnull align 8 dereferenceable(40) %33, ptr noundef nonnull align 8 dereferenceable(40) %8, i64 40, i1 false), !tbaa.struct !98
  call void @llvm.lifetime.end.p0(i64 40, ptr nonnull %8) #10
  %34 = call i32 @EVP_PKEY_CTX_set_params(ptr noundef nonnull %0, ptr noundef nonnull %7)
  br label %35

35:                                               ; preds = %32, %EVP_PKEY_CTX_ctrl.exit, %13
  %.0 = phi i32 [ -2, %13 ], [ %.0.i, %EVP_PKEY_CTX_ctrl.exit ], [ %34, %32 ]
  call void @llvm.lifetime.end.p0(i64 80, ptr nonnull %7) #10
  ret i32 %.0
}